Certificate:
    Data:
        Version: 3 (0x2)
        Serial Number: 1 (0x1)
        Signature Algorithm: sha256WithRSAEncryption
        Issuer: CN=devcert
        Validity
            Not Before: Apr 22 06:17:48 2020 GMT
            Not After : Jul 26 06:17:48 2022 GMT
        Subject: CN=localhost
        Subject Public Key Info:
            Public Key Algorithm: rsaEncryption
                RSA Public-Key: (2048 bit)
                Modulus:
                    00:9d:a9:c5:3c:26:4d:a5:61:bf:d9:b7:de:99:bb:
                    1e:b1:f3:ca:b7:f2:ef:b5:bf:30:46:1e:31:55:80:
                    f8:c1:09:84:da:87:da:7e:99:ed:41:e4:9e:e5:95:
                    f1:55:a4:c9:b0:fe:72:cb:b4:1c:b7:17:58:40:e8:
                    1c:42:88:57:bf:62:69:47:98:6a:cd:98:5b:b5:38:
                    6f:ef:7d:b9:98:3a:ad:7c:19:29:ee:54:a0:c6:c9:
                    1a:11:33:df:f1:b6:9a:bb:c8:56:c6:4e:4b:5e:59:
                    00:bd:c7:74:7e:da:84:98:a2:7e:f6:98:60:60:d7:
                    a3:c5:d6:e6:96:d9:7c:ac:e7:b5:b4:be:95:e5:55:
                    66:e0:e4:8c:27:25:3b:fd:a7:88:9d:ae:32:47:78:
                    96:6e:3d:6f:9e:42:3e:1e:bf:a2:39:bc:6f:4c:27:
                    24:c9:f5:6e:10:dc:af:e2:51:a3:46:27:96:e5:53:
                    c3:c6:e8:0d:6a:92:fa:6d:27:12:2f:df:79:0d:0c:
                    be:de:3c:4a:bb:e4:c1:99:8f:29:8a:e0:83:6c:88:
                    ad:77:c7:96:5c:c8:bb:9d:05:3d:f5:cf:b0:ca:20:
                    d9:cf:c2:05:aa:ef:db:bc:27:65:58:33:e8:fe:a4:
                    81:df:c1:22:e2:eb:84:7f:76:0d:37:92:37:c2:ba:
                    ae:13
                Exponent: 65537 (0x10001)
        X509v3 extensions:
            X509v3 Basic Constraints: critical
                CA:FALSE
            X509v3 Subject Key Identifier: 
                7E:24:E7:86:59:30:63:11:1F:45:D5:32:B4:D1:EB:AD:12:4D:FD:3F
            X509v3 Authority Key Identifier: 
                keyid:9B:AA:0B:F2:BA:DB:AC:35:7F:4B:A4:7C:D3:17:42:58:B1:3F:EC:15
                DirName:/CN=devcert
                serial:54:46:A2:03:A8:00:FE:09:80:2D:CF:F4:74:B8:C4:87:46:43:7D:E5

            X509v3 Key Usage: critical
                Digital Signature, Key Encipherment
            X509v3 Extended Key Usage: 
                TLS Web Server Authentication
            X509v3 Subject Alternative Name: 
                DNS:localhost, DNS:*.localhost
    Signature Algorithm: sha256WithRSAEncryption
         bd:5f:97:a9:41:c4:b8:df:7a:1f:0f:8d:55:86:8b:07:28:18:
         fe:01:f9:79:37:c1:e1:20:3c:e1:f5:23:a5:3b:9b:9f:88:c4:
         aa:81:fd:db:09:37:e6:bb:96:13:14:ed:aa:aa:89:f0:6e:fd:
         9a:3d:df:99:6b:d0:8b:45:22:99:be:0e:fb:61:73:2e:5a:0f:
         d7:eb:e8:50:65:55:6e:e0:20:17:01:ac:4b:99:4c:ae:42:4e:
         84:58:5d:c3:c3:19:f9:32:dc:4b:0e:72:d2:cf:30:ed:f7:94:
         7e:34:89:6e:65:79:77:6f:8d:b5:11:21:8c:37:55:58:b1:85:
         2b:c6:32:0c:5c:b0:bb:c4:5c:9a:2d:97:aa:9e:1a:47:ba:d2:
         11:9a:86:92:cd:e5:f1:70:74:5e:1e:58:86:30:b8:22:49:fe:
         f1:0b:94:ce:4e:b7:e4:02:a0:a8:e4:45:b5:d9:95:29:5f:67:
         85:80:67:d5:e3:da:6c:bc:64:a9:83:e2:eb:94:60:6c:2e:20:
         41:bb:a0:9a:6b:5d:78:47:6c:d7:9e:b0:16:1c:c4:30:43:9d:
         e1:01:8f:69:e4:16:f6:1a:0a:dc:21:e7:0b:89:da:39:90:54:
         bd:0e:11:3f:ad:fb:c0:ec:f1:45:f0:95:81:b7:4d:0f:97:2e:
         4d:2e:c2:0e
-----BEGIN CERTIFICATE-----
MIIDaTCCAlGgAwIBAgIBATANBgkqhkiG9w0BAQsFADASMRAwDgYDVQQDDAdkZXZj
ZXJ0MB4XDTIwMDQyMjA2MTc0OFoXDTIyMDcyNjA2MTc0OFowFDESMBAGA1UEAwwJ
bG9jYWxob3N0MIIBIjANBgkqhkiG9w0BAQEFAAOCAQ8AMIIBCgKCAQEAnanFPCZN
pWG/2bfembsesfPKt/Lvtb8wRh4xVYD4wQmE2ofafpntQeSe5ZXxVaTJsP5yy7Qc
txdYQOgcQohXv2JpR5hqzZhbtThv7325mDqtfBkp7lSgxskaETPf8baau8hWxk5L
XlkAvcd0ftqEmKJ+9phgYNejxdbmltl8rOe1tL6V5VVm4OSMJyU7/aeIna4yR3iW
bj1vnkI+Hr+iObxvTCckyfVuENyv4lGjRieW5VPDxugNapL6bScSL995DQy+3jxK
u+TBmY8piuCDbIitd8eWXMi7nQU99c+wyiDZz8IFqu/bvCdlWDPo/qSB38Ei4uuE
f3YNN5I3wrquEwIDAQABo4HHMIHEMAwGA1UdEwEB/wQCMAAwHQYDVR0OBBYEFH4k
54ZZMGMRH0XVMrTR660STf0/ME0GA1UdIwRGMESAFJuqC/K626w1f0ukfNMXQlix
P+wVoRakFDASMRAwDgYDVQQDDAdkZXZjZXJ0ghRURqIDqAD+CYAtz/R0uMSHRkN9
5TAOBgNVHQ8BAf8EBAMCBaAwEwYDVR0lBAwwCgYIKwYBBQUHAwEwIQYDVR0RBBow
GIIJbG9jYWxob3N0ggsqLmxvY2FsaG9zdDANBgkqhkiG9w0BAQsFAAOCAQEAvV+X
qUHEuN96Hw+NVYaLBygY/gH5eTfB4SA84fUjpTubn4jEqoH92wk35ruWExTtqqqJ
8G79mj3fmWvQi0Uimb4O+2FzLloP1+voUGVVbuAgFwGsS5lMrkJOhFhdw8MZ+TLc
Sw5y0s8w7feUfjSJbmV5d2+NtREhjDdVWLGFK8YyDFywu8Rcmi2Xqp4aR7rSEZqG
ks3l8XB0Xh5YhjC4Ikn+8QuUzk635AKgqORFtdmVKV9nhYBn1ePabLxkqYPi65Rg
bC4gQbugmmtdeEds156wFhzEMEOd4QGPaeQW9hoK3CHnC4naOZBUvQ4RP637wOzx
RfCVgbdND5cuTS7CDg==
-----END CERTIFICATE-----
